target datalayout = "e-m:e-p270:32:32-p271:32:32-p272:64:64-i64:64-i128:128-f80:128-n8:16:32:64-S128"
target triple = "x86_64-pc-linux-gnu"

%struct.AVFilterContext = type { ptr, ptr, ptr, ptr, ptr, i32, ptr, ptr, i32, ptr, ptr, i32, i32, ptr, ptr, ptr, ptr, i32, ptr, i32, i32 }
%struct.BlackDetectContext = type { ptr, double, i64, i64, i64, i64, i32, double, double, i32, i32, %struct.AVRational, i32, i32, ptr }
%struct.AVRational = type { i32, i32 }
%struct.AVChannelLayout = type { i32, i32, %union.anon.1, ptr }
%union.anon.1 = type { i64 }
%struct.AVFrame = type { [8 x ptr], [8 x i32], ptr, i32, i32, i32, i32, i32, %struct.AVRational, i64, i64, %struct.AVRational, i32, ptr, i32, i32, [8 x ptr], ptr, i32, ptr, i32, i32, i32, i32, i32, i32, i32, i64, ptr, i32, ptr, ptr, i64, i64, i64, i64, ptr, %struct.AVChannelLayout, i64 }

; Function Attrs: nounwind uwtable
define internal i32 @black_counter(ptr noundef %0, ptr noundef %1, i32 noundef %2, i32 noundef %3) #1 {
  %5 = alloca ptr, align 8
  %6 = alloca ptr, align 8
  %7 = alloca i32, align 4
  %8 = alloca i32, align 4
  %9 = alloca ptr, align 8
  %10 = alloca i32, align 4
  %11 = alloca ptr, align 8
  %12 = alloca ptr, align 8
  %13 = alloca i32, align 4
  %14 = alloca i32, align 4
  %15 = alloca i32, align 4
  %16 = alloca i32, align 4
  %17 = alloca i32, align 4
  %18 = alloca i32, align 4
  %19 = alloca i32, align 4
  %20 = alloca ptr, align 8
  %21 = alloca i32, align 4
  %22 = alloca i32, align 4
  %23 = alloca i32, align 4
  %24 = alloca ptr, align 8
  %25 = alloca i32, align 4
  %26 = alloca i32, align 4
  store ptr %0, ptr %5, align 8, !tbaa !4
  store ptr %1, ptr %6, align 8, !tbaa !78
  store i32 %2, ptr %7, align 4, !tbaa !47
  store i32 %3, ptr %8, align 4, !tbaa !47
  call void @llvm.lifetime.start.p0(i64 8, ptr %9) #10
  %27 = load ptr, ptr %5, align 8, !tbaa !4
  %28 = getelementptr inbounds nuw %struct.AVFilterContext, ptr %27, i32 0, i32 9
  %29 = load ptr, ptr %28, align 8, !tbaa !9
  store ptr %29, ptr %9, align 8, !tbaa !22
  call void @llvm.lifetime.start.p0(i64 4, ptr %10) #10
  %30 = load ptr, ptr %9, align 8, !tbaa !22
  %31 = getelementptr inbounds nuw %struct.BlackDetectContext, ptr %30, i32 0, i32 9
  %32 = load i32, ptr %31, align 8, !tbaa !55
  store i32 %32, ptr %10, align 4, !tbaa !47
  call void @llvm.lifetime.start.p0(i64 8, ptr %11) #10
  %33 = load ptr, ptr %9, align 8, !tbaa !22
  %34 = getelementptr inbounds nuw %struct.BlackDetectContext, ptr %33, i32 0, i32 14
  %35 = load ptr, ptr %34, align 8, !tbaa !58
  %36 = load i32, ptr %7, align 4, !tbaa !47
  %37 = sext i32 %36 to i64
  %38 = getelementptr inbounds i32, ptr %35, i64 %37
  store ptr %38, ptr %11, align 8, !tbaa !79
  call void @llvm.lifetime.start.p0(i64 8, ptr %12) #10
  %39 = load ptr, ptr %6, align 8, !tbaa !78
  store ptr %39, ptr %12, align 8, !tbaa !34
  call void @llvm.lifetime.start.p0(i64 4, ptr %13) #10
  %40 = load ptr, ptr %12, align 8, !tbaa !34
  %41 = getelementptr inbounds nuw %struct.AVFrame, ptr %40, i32 0, i32 1
  %42 = getelementptr inbounds [8 x i32], ptr %41, i64 0, i64 0
  %43 = load i32, ptr %42, align 8, !tbaa !47
  store i32 %43, ptr %13, align 4, !tbaa !47
  call void @llvm.lifetime.start.p0(i64 4, ptr %14) #10
  %44 = load ptr, ptr %12, align 8, !tbaa !34
  %45 = getelementptr inbounds nuw %struct.AVFrame, ptr %44, i32 0, i32 3
  %46 = load i32, ptr %45, align 8, !tbaa !80
  store i32 %46, ptr %14, align 4, !tbaa !47
  call void @llvm.lifetime.start.p0(i64 4, ptr %15) #10
  %47 = load ptr, ptr %12, align 8, !tbaa !34
  %48 = getelementptr inbounds nuw %struct.AVFrame, ptr %47, i32 0, i32 4
  %49 = load i32, ptr %48, align 4, !tbaa !81
  store i32 %49, ptr %15, align 4, !tbaa !47
  call void @llvm.lifetime.start.p0(i64 4, ptr %16) #10
  %50 = load i32, ptr %15, align 4, !tbaa !47
  %51 = load i32, ptr %7, align 4, !tbaa !47
  %52 = mul nsw i32 %50, %51
  %53 = load i32, ptr %8, align 4, !tbaa !47
  %54 = sdiv i32 %52, %53
  store i32 %54, ptr %16, align 4, !tbaa !47
  call void @llvm.lifetime.start.p0(i64 4, ptr %17) #10
  %55 = load i32, ptr %15, align 4, !tbaa !47
  %56 = load i32, ptr %7, align 4, !tbaa !47
  %57 = add nsw i32 %56, 1
  %58 = mul nsw i32 %55, %57
  %59 = load i32, ptr %8, align 4, !tbaa !47
  %60 = sdiv i32 %58, %59
  store i32 %60, ptr %17, align 4, !tbaa !47
  call void @llvm.lifetime.start.p0(i64 4, ptr %18) #10
  %61 = load i32, ptr %17, align 4, !tbaa !47
  %62 = load i32, ptr %16, align 4, !tbaa !47
  %63 = sub nsw i32 %61, %62
  store i32 %63, ptr %18, align 4, !tbaa !47
  call void @llvm.lifetime.start.p0(i64 4, ptr %19) #10
  store i32 0, ptr %19, align 4, !tbaa !47
  %64 = load ptr, ptr %9, align 8, !tbaa !22
  %65 = getelementptr inbounds nuw %struct.BlackDetectContext, ptr %64, i32 0, i32 12
  %66 = load i32, ptr %65, align 8, !tbaa !46
  %67 = icmp eq i32 %66, 8
  br i1 %67, label %68, label %113

68:                                               ; preds = %4
  call void @llvm.lifetime.start.p0(i64 8, ptr %20) #10
  %69 = load ptr, ptr %12, align 8, !tbaa !34
  %70 = getelementptr inbounds nuw %struct.AVFrame, ptr %69, i32 0, i32 0
  %71 = getelementptr inbounds [8 x ptr], ptr %70, i64 0, i64 0
  %72 = load ptr, ptr %71, align 8, !tbaa !82
  %73 = load i32, ptr %16, align 4, !tbaa !47
  %74 = load i32, ptr %13, align 4, !tbaa !47
  %75 = mul nsw i32 %73, %74
  %76 = sext i32 %75 to i64
  %77 = getelementptr inbounds i8, ptr %72, i64 %76
  store ptr %77, ptr %20, align 8, !tbaa !82
  call void @llvm.lifetime.start.p0(i64 4, ptr %21) #10
  store i32 0, ptr %21, align 4, !tbaa !47
  br label %78

78:                                               ; preds = %109, %68
  %79 = load i32, ptr %21, align 4, !tbaa !47
  %80 = load i32, ptr %18, align 4, !tbaa !47
  %81 = icmp slt i32 %79, %80
  br i1 %81, label %83, label %82

82:                                               ; preds = %78
  store i32 2, ptr %22, align 4
  call void @llvm.lifetime.end.p0(i64 4, ptr %21) #10
  br label %112

83:                                               ; preds = %78
  call void @llvm.lifetime.start.p0(i64 4, ptr %23) #10
  store i32 0, ptr %23, align 4, !tbaa !47
  br label %84

84:                                               ; preds = %101, %83
  %85 = load i32, ptr %23, align 4, !tbaa !47
  %86 = load i32, ptr %14, align 4, !tbaa !47
  %87 = icmp slt i32 %85, %86
  br i1 %87, label %89, label %88

88:                                               ; preds = %84
  store i32 5, ptr %22, align 4
  call void @llvm.lifetime.end.p0(i64 4, ptr %23) #10
  br label %104

89:                                               ; preds = %84
  %90 = load ptr, ptr %20, align 8, !tbaa !82
  %91 = load i32, ptr %23, align 4, !tbaa !47
  %92 = sext i32 %91 to i64
  %93 = getelementptr inbounds i8, ptr %90, i64 %92
  %94 = load i8, ptr %93, align 1, !tbaa !83
  %95 = zext i8 %94 to i32
  %96 = load i32, ptr %10, align 4, !tbaa !47
  %97 = icmp ule i32 %95, %96
  %98 = zext i1 %97 to i32
  %99 = load i32, ptr %19, align 4, !tbaa !47
  %100 = add i32 %99, %98
  store i32 %100, ptr %19, align 4, !tbaa !47
  br label %101

101:                                              ; preds = %89
  %102 = load i32, ptr %23, align 4, !tbaa !47
  %103 = add nsw i32 %102, 1
  store i32 %103, ptr %23, align 4, !tbaa !47
  br label %84, !llvm.loop !84

104:                                              ; preds = %88
  %105 = load i32, ptr %13, align 4, !tbaa !47
  %106 = load ptr, ptr %20, align 8, !tbaa !82
  %107 = sext i32 %105 to i64
  %108 = getelementptr inbounds i8, ptr %106, i64 %107
  store ptr %108, ptr %20, align 8, !tbaa !82
  br label %109

109:                                              ; preds = %104
  %110 = load i32, ptr %21, align 4, !tbaa !47
  %111 = add nsw i32 %110, 1
  store i32 %111, ptr %21, align 4, !tbaa !47
  br label %78, !llvm.loop !85

112:                                              ; preds = %82
  call void @llvm.lifetime.end.p0(i64 8, ptr %20) #10
  br label %159

113:                                              ; preds = %4
  call void @llvm.lifetime.start.p0(i64 8, ptr %24) #10
  %114 = load ptr, ptr %12, align 8, !tbaa !34
  %115 = getelementptr inbounds nuw %struct.AVFrame, ptr %114, i32 0, i32 0
  %116 = getelementptr inbounds [8 x ptr], ptr %115, i64 0, i64 0
  %117 = load ptr, ptr %116, align 8, !tbaa !82
  %118 = load i32, ptr %16, align 4, !tbaa !47
  %119 = load i32, ptr %13, align 4, !tbaa !47
  %120 = mul nsw i32 %118, %119
  %121 = sext i32 %120 to i64
  %122 = getelementptr inbounds i8, ptr %117, i64 %121
  store ptr %122, ptr %24, align 8, !tbaa !86
  call void @llvm.lifetime.start.p0(i64 4, ptr %25) #10
  store i32 0, ptr %25, align 4, !tbaa !47
  br label %123

123:                                              ; preds = %155, %113
  %124 = load i32, ptr %25, align 4, !tbaa !47
  %125 = load i32, ptr %18, align 4, !tbaa !47
  %126 = icmp slt i32 %124, %125
  br i1 %126, label %128, label %127

127:                                              ; preds = %123
  store i32 8, ptr %22, align 4
  call void @llvm.lifetime.end.p0(i64 4, ptr %25) #10
  br label %158

128:                                              ; preds = %123
  call void @llvm.lifetime.start.p0(i64 4, ptr %26) #10
  store i32 0, ptr %26, align 4, !tbaa !47
  br label %129

129:                                              ; preds = %146, %128
  %130 = load i32, ptr %26, align 4, !tbaa !47
  %131 = load i32, ptr %14, align 4, !tbaa !47
  %132 = icmp slt i32 %130, %131
  br i1 %132, label %134, label %133

133:                                              ; preds = %129
  store i32 11, ptr %22, align 4
  call void @llvm.lifetime.end.p0(i64 4, ptr %26) #10
  br label %149

134:                                              ; preds = %129
  %135 = load ptr, ptr %24, align 8, !tbaa !86
  %136 = load i32, ptr %26, align 4, !tbaa !47
  %137 = sext i32 %136 to i64
  %138 = getelementptr inbounds i16, ptr %135, i64 %137
  %139 = load i16, ptr %138, align 2, !tbaa !88
  %140 = zext i16 %139 to i32
  %141 = load i32, ptr %10, align 4, !tbaa !47
  %142 = icmp ule i32 %140, %141
  %143 = zext i1 %142 to i32
  %144 = load i32, ptr %19, align 4, !tbaa !47
  %145 = add i32 %144, %143
  store i32 %145, ptr %19, align 4, !tbaa !47
  br label %146

146:                                              ; preds = %134
  %147 = load i32, ptr %26, align 4, !tbaa !47
  %148 = add nsw i32 %147, 1
  store i32 %148, ptr %26, align 4, !tbaa !47
  br label %129, !llvm.loop !90

149:                                              ; preds = %133
  %150 = load i32, ptr %13, align 4, !tbaa !47
  %151 = sdiv i32 %150, 2
  %152 = load ptr, ptr %24, align 8, !tbaa !86
  %153 = sext i32 %151 to i64
  %154 = getelementptr inbounds i16, ptr %152, i64 %153
  store ptr %154, ptr %24, align 8, !tbaa !86
  br label %155

155:                                              ; preds = %149
  %156 = load i32, ptr %25, align 4, !tbaa !47
  %157 = add nsw i32 %156, 1
  store i32 %157, ptr %25, align 4, !tbaa !47
  br label %123, !llvm.loop !91

158:                                              ; preds = %127
  call void @llvm.lifetime.end.p0(i64 8, ptr %24) #10
  br label %159

159:                                              ; preds = %158, %112
  %160 = load i32, ptr %19, align 4, !tbaa !47
  %161 = load ptr, ptr %11, align 8, !tbaa !79
  store i32 %160, ptr %161, align 4, !tbaa !47
  store i32 1, ptr %22, align 4
  call void @llvm.lifetime.end.p0(i64 4, ptr %19) #10
  call void @llvm.lifetime.end.p0(i64 4, ptr %18) #10
  call void @llvm.lifetime.end.p0(i64 4, ptr %17) #10
  call void @llvm.lifetime.end.p0(i64 4, ptr %16) #10
  call void @llvm.lifetime.end.p0(i64 4, ptr %15) #10
  call void @llvm.lifetime.end.p0(i64 4, ptr %14) #10
  call void @llvm.lifetime.end.p0(i64 4, ptr %13) #10
  call void @llvm.lifetime.end.p0(i64 8, ptr %12) #10
  call void @llvm.lifetime.end.p0(i64 8, ptr %11) #10
  call void @llvm.lifetime.end.p0(i64 4, ptr %10) #10
  call void @llvm.lifetime.end.p0(i64 8, ptr %9) #10
  ret i32 0
}