; Function Attrs: nofree norecurse nosync nounwind memory(readwrite, inaccessiblemem: none) uwtable
define internal noundef i32 @black_counter(ptr noundef readonly captures(none) %0, ptr noundef readonly captures(none) %1, i32 noundef %2, i32 noundef %3) #4 {
  %5 = getelementptr inbounds nuw i8, ptr %0, i64 72
  %6 = load ptr, ptr %5, align 8, !tbaa !4
  %7 = getelementptr inbounds nuw i8, ptr %6, i64 72
  %8 = load i32, ptr %7, align 8, !tbaa !44
  %9 = getelementptr inbounds nuw i8, ptr %6, i64 96
  %10 = load ptr, ptr %9, align 8, !tbaa !48
  %11 = getelementptr inbounds nuw i8, ptr %1, i64 64
  %12 = load i32, ptr %11, align 8, !tbaa !55
  %13 = getelementptr inbounds nuw i8, ptr %1, i64 104
  %14 = load i32, ptr %13, align 8, !tbaa !67
  %15 = getelementptr inbounds nuw i8, ptr %1, i64 108
  %16 = load i32, ptr %15, align 4, !tbaa !68
  %17 = mul nsw i32 %16, %2
  %18 = sdiv i32 %17, %3
  %19 = add nsw i32 %2, 1
  %20 = mul nsw i32 %16, %19
  %21 = sdiv i32 %20, %3
  %22 = sub i32 %21, %18
  %23 = getelementptr inbounds nuw i8, ptr %6, i64 88
  %24 = load i32, ptr %23, align 8, !tbaa !36
  %25 = icmp eq i32 %24, 8
  %26 = icmp sgt i32 %22, 0
  br i1 %25, label %27, label %43

27:                                               ; preds = %4
  br i1 %26, label %.preheader.lr.ph, label %.loopexit

.preheader.lr.ph:                                 ; preds = %27
  %28 = icmp sgt i32 %14, 0
  %29 = sext i32 %12 to i64
  br i1 %28, label %.preheader.us.preheader, label %.loopexit

.preheader.us.preheader:                          ; preds = %.preheader.lr.ph
  %30 = load ptr, ptr %1, align 8, !tbaa !69
  %31 = mul nsw i32 %18, %12
  %32 = sext i32 %31 to i64
  %33 = getelementptr inbounds i8, ptr %30, i64 %32
  %wide.trip.count80 = zext nneg i32 %14 to i64
  br label %.preheader.us

.preheader.us:                                    ; preds = %.preheader.us.preheader, %._crit_edge.us68
  %.05166.us = phi i32 [ %42, %._crit_edge.us68 ], [ 0, %.preheader.us.preheader ]
  %.05265.us = phi ptr [ %41, %._crit_edge.us68 ], [ %33, %.preheader.us.preheader ]
  %.05364.us = phi i32 [ %40, %._crit_edge.us68 ], [ 0, %.preheader.us.preheader ]
  br label %34

34:                                               ; preds = %.preheader.us, %34
  %indvars.iv77 = phi i64 [ 0, %.preheader.us ], [ %indvars.iv.next78, %34 ]
  %.162.us = phi i32 [ %.05364.us, %.preheader.us ], [ %40, %34 ]
  %35 = getelementptr inbounds nuw i8, ptr %.05265.us, i64 %indvars.iv77
  %36 = load i8, ptr %35, align 1, !tbaa !70
  %37 = zext i8 %36 to i32
  %38 = icmp uge i32 %8, %37
  %39 = zext i1 %38 to i32
  %40 = add i32 %.162.us, %39
  %indvars.iv.next78 = add nuw nsw i64 %indvars.iv77, 1
  %exitcond81.not = icmp eq i64 %indvars.iv.next78, %wide.trip.count80
  br i1 %exitcond81.not, label %._crit_edge.us68, label %34, !llvm.loop !71

._crit_edge.us68:                                 ; preds = %34
  %41 = getelementptr inbounds i8, ptr %.05265.us, i64 %29
  %42 = add nuw nsw i32 %.05166.us, 1
  %exitcond82.not = icmp eq i32 %42, %22
  br i1 %exitcond82.not, label %.loopexit, label %.preheader.us, !llvm.loop !72

43:                                               ; preds = %4
  br i1 %26, label %.preheader54.lr.ph, label %.loopexit

.preheader54.lr.ph:                               ; preds = %43
  %44 = icmp sgt i32 %14, 0
  %45 = sdiv i32 %12, 2
  %46 = sext i32 %45 to i64
  br i1 %44, label %.preheader54.us.preheader, label %.loopexit

.preheader54.us.preheader:                        ; preds = %.preheader54.lr.ph
  %47 = load ptr, ptr %1, align 8, !tbaa !69
  %48 = mul nsw i32 %18, %12
  %49 = sext i32 %48 to i64
  %50 = getelementptr inbounds i8, ptr %47, i64 %49
  %wide.trip.count = zext nneg i32 %14 to i64
  br label %.preheader54.us

.preheader54.us:                                  ; preds = %.preheader54.us.preheader, %._crit_edge.us
  %.04860.us = phi i32 [ %59, %._crit_edge.us ], [ 0, %.preheader54.us.preheader ]
  %.04959.us = phi ptr [ %58, %._crit_edge.us ], [ %50, %.preheader54.us.preheader ]
  %.358.us = phi i32 [ %57, %._crit_edge.us ], [ 0, %.preheader54.us.preheader ]
  br label %51

51:                                               ; preds = %.preheader54.us, %51
  %indvars.iv = phi i64 [ 0, %.preheader54.us ], [ %indvars.iv.next, %51 ]
  %.456.us = phi i32 [ %.358.us, %.preheader54.us ], [ %57, %51 ]
  %52 = getelementptr inbounds nuw i16, ptr %.04959.us, i64 %indvars.iv
  %53 = load i16, ptr %52, align 2, !tbaa !73
  %54 = zext i16 %53 to i32
  %55 = icmp uge i32 %8, %54
  %56 = zext i1 %55 to i32
  %57 = add i32 %.456.us, %56
  %indvars.iv.next = add nuw nsw i64 %indvars.iv, 1
  %exitcond.not = icmp eq i64 %indvars.iv.next, %wide.trip.count
  br i1 %exitcond.not, label %._crit_edge.us, label %51, !llvm.loop !75

._crit_edge.us:                                   ; preds = %51
  %58 = getelementptr inbounds i16, ptr %.04959.us, i64 %46
  %59 = add nuw nsw i32 %.04860.us, 1
  %exitcond76.not = icmp eq i32 %59, %22
  br i1 %exitcond76.not, label %.loopexit, label %.preheader54.us, !llvm.loop !76

.loopexit:                                        ; preds = %._crit_edge.us, %._crit_edge.us68, %.preheader54.lr.ph, %.preheader.lr.ph, %43, %27
  %.2 = phi i32 [ 0, %27 ], [ 0, %43 ], [ 0, %.preheader.lr.ph ], [ 0, %.preheader54.lr.ph ], [ %40, %._crit_edge.us68 ], [ %57, %._crit_edge.us ]
  %60 = sext i32 %2 to i64
  %61 = getelementptr inbounds i32, ptr %10, i64 %60
  store i32 %.2, ptr %61, align 4, !tbaa !55
  ret i32 0
}